; Function Attrs: nofree nounwind uwtable
define internal noundef i32 @tikz_declare_color(ptr noundef readonly captures(none) %0, ptr noundef readonly captures(none) %1) #8 {
  %3 = load i32, ptr %1, align 8, !tbaa !32
  %4 = getelementptr inbounds nuw i8, ptr %1, i64 4
  %5 = load i32, ptr %4, align 4, !tbaa !35
  %6 = getelementptr inbounds nuw i8, ptr %1, i64 8
  %7 = load i32, ptr %6, align 8, !tbaa !36
  %8 = getelementptr inbounds nuw i8, ptr %0, i64 1584
  %9 = load ptr, ptr %8, align 8, !tbaa !25
  %10 = tail call i32 (ptr, ptr, ...) @fprintf(ptr noundef %9, ptr noundef nonnull @.str.21, i32 noundef %3, i32 noundef %5, i32 noundef %7, i32 noundef %3, i32 noundef %5, i32 noundef %7) #13
  ret i32 0
}